target datalayout = "e-m:e-p270:32:32-p271:32:32-p272:64:64-i64:64-i128:128-f80:128-n8:16:32:64-S128"
target triple = "x86_64-pc-linux-gnu"

%struct.expert_field = type { i32, i32 }
%struct._packet_info = type { ptr, ptr, i32, i32, %struct.nstime_t, %struct.nstime_t, %struct.nstime_t, i8, ptr, ptr, ptr, ptr, %struct._address, %struct._address, %struct._address, %struct._address, %struct._address, %struct._address, i32, ptr, i8, [3 x i8], %struct.anon.1, i32, i32, i32, i32, ptr, i8, ptr, ptr, i16, i16, i32, i32, i16, i32, i32, ptr, ptr, ptr, i8, i8, i16, i16, i16, i32, i16, i16, ptr, ptr, ptr, ptr, ptr, i32, i32 }
%struct.nstime_t = type { i64, i32 }
%struct._address = type { i32, i32, ptr, ptr }
%struct.anon.1 = type { i8, [3 x i8] }

@hf_amqp_0_9_method_connection_close_reply_code = internal global i32 0, align 4
@hf_amqp_method_connection_close_reply_text = internal global i32 0, align 4
@hf_amqp_method_connection_close_class_id = internal global i32 0, align 4
@hf_amqp_method_connection_close_method_id = internal global i32 0, align 4
@ei_amqp_connection_error = internal global %struct.expert_field zeroinitializer, align 4
@.str.1474 = private unnamed_addr constant [10 x i8] c"reply=%s \00", align 1

; Function Attrs: null_pointer_is_valid sspstrong uwtable
define internal i32 @dissect_amqp_0_9_method_connection_close(ptr noundef %0, ptr noundef %1, i32 noundef %2, ptr noundef %3) #0 {
  %5 = alloca ptr, align 8
  %6 = alloca ptr, align 8
  %7 = alloca i32, align 4
  %8 = alloca ptr, align 8
  %9 = alloca ptr, align 8
  %10 = alloca ptr, align 8
  store ptr %0, ptr %5, align 8
  store ptr %1, ptr %6, align 8
  store i32 %2, ptr %7, align 4
  store ptr %3, ptr %8, align 8
  call void @llvm.lifetime.start.p0(i64 8, ptr %9) #11
  call void @llvm.lifetime.start.p0(i64 8, ptr %10) #11
  %11 = load ptr, ptr %8, align 8
  %12 = load i32, ptr @hf_amqp_0_9_method_connection_close_reply_code, align 4
  %13 = load ptr, ptr %5, align 8
  %14 = load i32, ptr %7, align 4
  %15 = call ptr @proto_tree_add_item(ptr noundef %11, i32 noundef %12, ptr noundef %13, i32 noundef %14, i32 noundef 2, i32 noundef 0)
  store ptr %15, ptr %9, align 8
  %16 = load ptr, ptr %5, align 8
  %17 = load i32, ptr %7, align 4
  %18 = call zeroext i16 @tvb_get_ntohs(ptr noundef %16, i32 noundef %17)
  %19 = zext i16 %18 to i32
  %20 = icmp sgt i32 %19, 200
  br i1 %20, label %21, label %25

21:                                               ; preds = %4
  %22 = load ptr, ptr %6, align 8
  %23 = load ptr, ptr %9, align 8
  %24 = call ptr @expert_add_info(ptr noundef %22, ptr noundef %23, ptr noundef @ei_amqp_connection_error)
  br label %25

25:                                               ; preds = %21, %4
  %26 = load i32, ptr %7, align 4
  %27 = add i32 %26, 2
  store i32 %27, ptr %7, align 4
  %28 = load ptr, ptr %8, align 8
  %29 = load i32, ptr @hf_amqp_method_connection_close_reply_text, align 4
  %30 = load ptr, ptr %5, align 8
  %31 = load i32, ptr %7, align 4
  %32 = load ptr, ptr %6, align 8
  %33 = getelementptr inbounds nuw %struct._packet_info, ptr %32, i32 0, i32 51
  %34 = load ptr, ptr %33, align 8
  %35 = call ptr @proto_tree_add_item_ret_string(ptr noundef %28, i32 noundef %29, ptr noundef %30, i32 noundef %31, i32 noundef 1, i32 noundef 0, ptr noundef %34, ptr noundef %10)
  %36 = load ptr, ptr %6, align 8
  %37 = getelementptr inbounds nuw %struct._packet_info, ptr %36, i32 0, i32 1
  %38 = load ptr, ptr %37, align 8
  %39 = load ptr, ptr %10, align 8
  call void (ptr, i32, ptr, ...) @col_append_fstr(ptr noundef %38, i32 noundef 25, ptr noundef @.str.1474, ptr noundef %39)
  %40 = load ptr, ptr %5, align 8
  %41 = load i32, ptr %7, align 4
  %42 = call zeroext i8 @tvb_get_uint8(ptr noundef %40, i32 noundef %41)
  %43 = zext i8 %42 to i32
  %44 = add i32 1, %43
  %45 = load i32, ptr %7, align 4
  %46 = add i32 %45, %44
  store i32 %46, ptr %7, align 4
  %47 = load ptr, ptr %8, align 8
  %48 = load i32, ptr @hf_amqp_method_connection_close_class_id, align 4
  %49 = load ptr, ptr %5, align 8
  %50 = load i32, ptr %7, align 4
  %51 = call ptr @proto_tree_add_item(ptr noundef %47, i32 noundef %48, ptr noundef %49, i32 noundef %50, i32 noundef 2, i32 noundef 0)
  %52 = load i32, ptr %7, align 4
  %53 = add i32 %52, 2
  store i32 %53, ptr %7, align 4
  %54 = load ptr, ptr %8, align 8
  %55 = load i32, ptr @hf_amqp_method_connection_close_method_id, align 4
  %56 = load ptr, ptr %5, align 8
  %57 = load i32, ptr %7, align 4
  %58 = call ptr @proto_tree_add_item(ptr noundef %54, i32 noundef %55, ptr noundef %56, i32 noundef %57, i32 noundef 2, i32 noundef 0)
  %59 = load i32, ptr %7, align 4
  %60 = add i32 %59, 2
  store i32 %60, ptr %7, align 4
  %61 = load i32, ptr %7, align 4
  call void @llvm.lifetime.end.p0(i64 8, ptr %10) #11
  call void @llvm.lifetime.end.p0(i64 8, ptr %9) #11
  ret i32 %61
}