; Function Attrs: null_pointer_is_valid sspstrong uwtable
define internal fastcc void @dissect_amqp_0_9_method_connection_close(ptr noundef %0, ptr noundef %1, ptr noundef %2) unnamed_addr #0 {
  %4 = alloca ptr, align 8
  call void @llvm.lifetime.start.p0(i64 8, ptr nonnull %4) #14
  %5 = load i32, ptr @hf_amqp_0_9_method_connection_close_reply_code, align 4
  %6 = tail call ptr @proto_tree_add_item(ptr noundef %2, i32 noundef %5, ptr noundef %0, i32 noundef 11, i32 noundef 2, i32 noundef 0)
  %7 = tail call zeroext i16 @tvb_get_ntohs(ptr noundef %0, i32 noundef 11)
  %8 = icmp ugt i16 %7, 200
  br i1 %8, label %9, label %11

9:                                                ; preds = %3
  %10 = tail call ptr @expert_add_info(ptr noundef %1, ptr noundef %6, ptr noundef nonnull @ei_amqp_connection_error)
  br label %11

11:                                               ; preds = %9, %3
  %12 = load i32, ptr @hf_amqp_method_connection_close_reply_text, align 4
  %13 = getelementptr inbounds nuw i8, ptr %1, i64 408
  %14 = load ptr, ptr %13, align 8
  %15 = call ptr @proto_tree_add_item_ret_string(ptr noundef %2, i32 noundef %12, ptr noundef %0, i32 noundef 13, i32 noundef 1, i32 noundef 0, ptr noundef %14, ptr noundef nonnull %4)
  %16 = getelementptr inbounds nuw i8, ptr %1, i64 8
  %17 = load ptr, ptr %16, align 8
  %18 = load ptr, ptr %4, align 8
  call void (ptr, i32, ptr, ...) @col_append_fstr(ptr noundef %17, i32 noundef 25, ptr noundef nonnull @.str.1474, ptr noundef %18)
  %19 = call zeroext i8 @tvb_get_uint8(ptr noundef %0, i32 noundef 13)
  %20 = zext i8 %19 to i32
  %21 = add nuw nsw i32 %20, 14
  %22 = load i32, ptr @hf_amqp_method_connection_close_class_id, align 4
  %23 = call ptr @proto_tree_add_item(ptr noundef %2, i32 noundef %22, ptr noundef %0, i32 noundef %21, i32 noundef 2, i32 noundef 0)
  %24 = add nuw nsw i32 %20, 16
  %25 = load i32, ptr @hf_amqp_method_connection_close_method_id, align 4
  %26 = call ptr @proto_tree_add_item(ptr noundef %2, i32 noundef %25, ptr noundef %0, i32 noundef %24, i32 noundef 2, i32 noundef 0)
  call void @llvm.lifetime.end.p0(i64 8, ptr nonnull %4) #14
  ret void
}